target datalayout = "e-m:e-p270:32:32-p271:32:32-p272:64:64-i64:64-i128:128-f80:128-n8:16:32:64-S128"
target triple = "x86_64-pc-linux-gnu"

%struct.TuplesortPublic = type { ptr, ptr, ptr, ptr, ptr, ptr, ptr, ptr, ptr, i8, i32, ptr, ptr, i32, i8, ptr }
%struct.SortSupportData = type { ptr, i32, i8, i8, i16, ptr, ptr, i8, ptr, ptr, ptr }
%struct.SortTuple = type { ptr, i64, i8, i32 }
%struct.TuplesortDatumArg = type { i32, i32 }

@CurrentMemoryContext = external global ptr, align 8

; Function Attrs: inlinehint nounwind uwtable
define internal ptr @DatumGetPointer(i64 noundef %0) #3 {
  %2 = alloca i64, align 8
  store i64 %0, ptr %2, align 8
  %3 = load i64, ptr %2, align 8
  %4 = inttoptr i64 %3 to ptr
  ret ptr %4
}

; Function Attrs: inlinehint nounwind uwtable
define internal ptr @MemoryContextSwitchTo(ptr noundef %0) #3 {
  %2 = alloca ptr, align 8
  %3 = alloca ptr, align 8
  store ptr %0, ptr %2, align 8
  call void @llvm.lifetime.start.p0(i64 8, ptr %3) #6
  %4 = load ptr, ptr @CurrentMemoryContext, align 8
  store ptr %4, ptr %3, align 8
  %5 = load ptr, ptr %2, align 8
  store ptr %5, ptr @CurrentMemoryContext, align 8
  %6 = load ptr, ptr %3, align 8
  call void @llvm.lifetime.end.p0(i64 8, ptr %3) #6
  ret ptr %6
}

; Function Attrs: nounwind uwtable
define dso_local void @tuplesort_putdatum(ptr noundef %0, i64 noundef %1, i1 noundef zeroext %2) #0 {
  %4 = alloca ptr, align 8
  %5 = alloca i64, align 8
  %6 = alloca i8, align 1
  %7 = alloca ptr, align 8
  %8 = alloca ptr, align 8
  %9 = alloca ptr, align 8
  %10 = alloca %struct.SortTuple, align 8
  store ptr %0, ptr %4, align 8
  store i64 %1, ptr %5, align 8
  %11 = zext i1 %2 to i8
  store i8 %11, ptr %6, align 1
  call void @llvm.lifetime.start.p0(i64 8, ptr %7) #6
  %12 = load ptr, ptr %4, align 8
  store ptr %12, ptr %7, align 8
  call void @llvm.lifetime.start.p0(i64 8, ptr %8) #6
  %13 = load ptr, ptr %7, align 8
  %14 = getelementptr inbounds nuw %struct.TuplesortPublic, ptr %13, i32 0, i32 8
  %15 = load ptr, ptr %14, align 8
  %16 = call ptr @MemoryContextSwitchTo(ptr noundef %15)
  store ptr %16, ptr %8, align 8
  call void @llvm.lifetime.start.p0(i64 8, ptr %9) #6
  %17 = load ptr, ptr %7, align 8
  %18 = getelementptr inbounds nuw %struct.TuplesortPublic, ptr %17, i32 0, i32 15
  %19 = load ptr, ptr %18, align 8
  store ptr %19, ptr %9, align 8
  call void @llvm.lifetime.start.p0(i64 24, ptr %10) #6
  %20 = load i8, ptr %6, align 1, !range !4, !noundef !5
  %21 = trunc i8 %20 to i1
  br i1 %21, label %27, label %22

22:                                               ; preds = %3
  %23 = load ptr, ptr %7, align 8
  %24 = getelementptr inbounds nuw %struct.TuplesortPublic, ptr %23, i32 0, i32 14
  %25 = load i8, ptr %24, align 4, !range !4, !noundef !5
  %26 = trunc i8 %25 to i1
  br i1 %26, label %41, label %27

27:                                               ; preds = %22, %3
  %28 = load i8, ptr %6, align 1, !range !4, !noundef !5
  %29 = trunc i8 %28 to i1
  br i1 %29, label %32, label %30

30:                                               ; preds = %27
  %31 = load i64, ptr %5, align 8
  br label %33

32:                                               ; preds = %27
  br label %33

33:                                               ; preds = %32, %30
  %34 = phi i64 [ %31, %30 ], [ 0, %32 ]
  %35 = getelementptr inbounds nuw %struct.SortTuple, ptr %10, i32 0, i32 1
  store i64 %34, ptr %35, align 8
  %36 = load i8, ptr %6, align 1, !range !4, !noundef !5
  %37 = trunc i8 %36 to i1
  %38 = getelementptr inbounds nuw %struct.SortTuple, ptr %10, i32 0, i32 2
  %39 = zext i1 %37 to i8
  store i8 %39, ptr %38, align 8
  %40 = getelementptr inbounds nuw %struct.SortTuple, ptr %10, i32 0, i32 0
  store ptr null, ptr %40, align 8
  br label %53

41:                                               ; preds = %22
  %42 = getelementptr inbounds nuw %struct.SortTuple, ptr %10, i32 0, i32 2
  store i8 0, ptr %42, align 8
  %43 = load i64, ptr %5, align 8
  %44 = load ptr, ptr %9, align 8
  %45 = getelementptr inbounds nuw %struct.TuplesortDatumArg, ptr %44, i32 0, i32 1
  %46 = load i32, ptr %45, align 4
  %47 = call i64 @datumCopy(i64 noundef %43, i1 noundef zeroext false, i32 noundef %46)
  %48 = getelementptr inbounds nuw %struct.SortTuple, ptr %10, i32 0, i32 1
  store i64 %47, ptr %48, align 8
  %49 = getelementptr inbounds nuw %struct.SortTuple, ptr %10, i32 0, i32 1
  %50 = load i64, ptr %49, align 8
  %51 = call ptr @DatumGetPointer(i64 noundef %50)
  %52 = getelementptr inbounds nuw %struct.SortTuple, ptr %10, i32 0, i32 0
  store ptr %51, ptr %52, align 8
  br label %53

53:                                               ; preds = %41, %33
  %54 = load ptr, ptr %4, align 8
  %55 = load ptr, ptr %7, align 8
  %56 = getelementptr inbounds nuw %struct.TuplesortPublic, ptr %55, i32 0, i32 14
  %57 = load i8, ptr %56, align 4, !range !4, !noundef !5
  %58 = trunc i8 %57 to i1
  br i1 %58, label %59, label %70

59:                                               ; preds = %53
  %60 = load ptr, ptr %7, align 8
  %61 = getelementptr inbounds nuw %struct.TuplesortPublic, ptr %60, i32 0, i32 11
  %62 = load ptr, ptr %61, align 8
  %63 = getelementptr inbounds nuw %struct.SortSupportData, ptr %62, i32 0, i32 8
  %64 = load ptr, ptr %63, align 8
  %65 = icmp ne ptr %64, null
  br i1 %65, label %66, label %70

66:                                               ; preds = %59
  %67 = load i8, ptr %6, align 1, !range !4, !noundef !5
  %68 = trunc i8 %67 to i1
  %69 = xor i1 %68, true
  br label %70

70:                                               ; preds = %66, %59, %53
  %71 = phi i1 [ false, %59 ], [ false, %53 ], [ %69, %66 ]
  call void @tuplesort_puttuple_common(ptr noundef %54, ptr noundef %10, i1 noundef zeroext %71, i64 noundef 0)
  %72 = load ptr, ptr %8, align 8
  %73 = call ptr @MemoryContextSwitchTo(ptr noundef %72)
  call void @llvm.lifetime.end.p0(i64 24, ptr %10) #6
  call void @llvm.lifetime.end.p0(i64 8, ptr %9) #6
  call void @llvm.lifetime.end.p0(i64 8, ptr %8) #6
  call void @llvm.lifetime.end.p0(i64 8, ptr %7) #6
  ret void
}