; Function Attrs: nounwind uwtable
define dso_local void @tuplesort_putdatum(ptr noundef %0, i64 noundef %1, i1 noundef zeroext %2) local_unnamed_addr #0 {
  %4 = alloca %struct.SortTuple, align 8
  %5 = zext i1 %2 to i8
  %6 = getelementptr inbounds nuw i8, ptr %0, i64 64
  %7 = load ptr, ptr %6, align 8
  %8 = load ptr, ptr @CurrentMemoryContext, align 8
  store ptr %7, ptr @CurrentMemoryContext, align 8
  %9 = getelementptr inbounds nuw i8, ptr %0, i64 104
  %10 = load ptr, ptr %9, align 8
  call void @llvm.lifetime.start.p0(i64 24, ptr nonnull %4) #12
  br i1 %2, label %15, label %11

11:                                               ; preds = %3
  %12 = getelementptr inbounds nuw i8, ptr %0, i64 100
  %13 = load i8, ptr %12, align 4, !range !4, !noundef !5
  %14 = trunc nuw i8 %13 to i1
  br i1 %14, label %19, label %15

15:                                               ; preds = %11, %3
  %16 = phi i64 [ %1, %11 ], [ 0, %3 ]
  %17 = getelementptr inbounds nuw i8, ptr %4, i64 8
  store i64 %16, ptr %17, align 8
  %18 = getelementptr inbounds nuw i8, ptr %4, i64 16
  store i8 %5, ptr %18, align 8
  br label %26

19:                                               ; preds = %11
  %20 = getelementptr inbounds nuw i8, ptr %4, i64 16
  store i8 0, ptr %20, align 8
  %21 = getelementptr inbounds nuw i8, ptr %10, i64 4
  %22 = load i32, ptr %21, align 4
  %23 = tail call i64 @datumCopy(i64 noundef %1, i1 noundef zeroext false, i32 noundef %22) #12
  %24 = getelementptr inbounds nuw i8, ptr %4, i64 8
  store i64 %23, ptr %24, align 8
  %25 = inttoptr i64 %23 to ptr
  br label %26

26:                                               ; preds = %19, %15
  %storemerge = phi ptr [ %25, %19 ], [ null, %15 ]
  store ptr %storemerge, ptr %4, align 8
  %27 = getelementptr inbounds nuw i8, ptr %0, i64 100
  %28 = load i8, ptr %27, align 4, !range !4, !noundef !5
  %29 = trunc nuw i8 %28 to i1
  br i1 %29, label %30, label %36

30:                                               ; preds = %26
  %31 = getelementptr inbounds nuw i8, ptr %0, i64 80
  %32 = load ptr, ptr %31, align 8
  %33 = getelementptr inbounds nuw i8, ptr %32, i64 40
  %34 = load ptr, ptr %33, align 8
  %.not = icmp ne ptr %34, null
  %35 = xor i1 %2, true
  %spec.select = and i1 %.not, %35
  br label %36

36:                                               ; preds = %30, %26
  %37 = phi i1 [ false, %26 ], [ %spec.select, %30 ]
  call void @tuplesort_puttuple_common(ptr noundef nonnull %0, ptr noundef nonnull %4, i1 noundef zeroext %37, i64 noundef 0) #12
  store ptr %8, ptr @CurrentMemoryContext, align 8
  call void @llvm.lifetime.end.p0(i64 24, ptr nonnull %4) #12
  ret void
}